; Function Attrs: mustprogress uwtable
define void @_ZN4base13AtExitManager12RegisterTaskENS_8CallbackIFvvELNS_8internal8CopyModeE1ELNS3_10RepeatModeE1EEE(ptr noundef %0) local_unnamed_addr #0 align 2 personality ptr @__gxx_personality_v0 {
  %2 = load ptr, ptr @_ZN4baseL13g_top_managerE, align 8, !tbaa !21
  %.not = icmp eq ptr %2, null
  br i1 %.not, label %_ZN4base8AutoLockD2Ev.exit, label %3

3:                                                ; preds = %1
  tail call void @_ZN4base8internal8LockImpl4LockEv(ptr noundef nonnull align 8 dereferenceable(40) %2)
  %4 = load ptr, ptr @_ZN4baseL13g_top_managerE, align 8, !tbaa !21
  %5 = getelementptr inbounds nuw i8, ptr %4, i64 88
  %6 = load ptr, ptr %5, align 8, !tbaa !40
  %7 = getelementptr inbounds nuw i8, ptr %4, i64 104
  %8 = load ptr, ptr %7, align 8, !tbaa !56
  %9 = getelementptr inbounds i8, ptr %8, i64 -8
  %.not.i.i.i = icmp eq ptr %6, %9
  br i1 %.not.i.i.i, label %13, label %10

10:                                               ; preds = %3
  invoke void @_ZN4base8internal12CallbackBaseILNS0_8CopyModeE1EEC2EOS3_(ptr noundef nonnull align 8 dereferenceable(8) %6, ptr noundef nonnull align 8 dereferenceable(8) %0)
          to label %.noexc unwind label %18

.noexc:                                           ; preds = %10
  %11 = load ptr, ptr %5, align 8, !tbaa !40
  %12 = getelementptr inbounds nuw i8, ptr %11, i64 8
  store ptr %12, ptr %5, align 8, !tbaa !40
  br label %_ZNSt5stackIN4base8CallbackIFvvELNS0_8internal8CopyModeE1ELNS3_10RepeatModeE1EEESt5dequeIS6_SaIS6_EEE4pushEOS6_.exit

13:                                               ; preds = %3
  %14 = getelementptr inbounds nuw i8, ptr %4, i64 40
  invoke void @_ZNSt5dequeIN4base8CallbackIFvvELNS0_8internal8CopyModeE1ELNS3_10RepeatModeE1EEESaIS6_EE16_M_push_back_auxIJS6_EEEvDpOT_(ptr noundef nonnull align 8 dereferenceable(80) %14, ptr noundef nonnull align 8 dereferenceable(8) %0)
          to label %_ZNSt5stackIN4base8CallbackIFvvELNS0_8internal8CopyModeE1ELNS3_10RepeatModeE1EEESt5dequeIS6_SaIS6_EEE4pushEOS6_.exit unwind label %18

_ZNSt5stackIN4base8CallbackIFvvELNS0_8internal8CopyModeE1ELNS3_10RepeatModeE1EEESt5dequeIS6_SaIS6_EEE4pushEOS6_.exit: ; preds = %.noexc, %13
  invoke void @_ZN4base8internal8LockImpl6UnlockEv(ptr noundef nonnull align 8 dereferenceable(40) %2)
          to label %_ZN4base8AutoLockD2Ev.exit unwind label %15

15:                                               ; preds = %_ZNSt5stackIN4base8CallbackIFvvELNS0_8internal8CopyModeE1ELNS3_10RepeatModeE1EEESt5dequeIS6_SaIS6_EEE4pushEOS6_.exit
  %16 = landingpad { ptr, i32 }
          catch ptr null
  %17 = extractvalue { ptr, i32 } %16, 0
  tail call void @__clang_call_terminate(ptr %17) #14
  unreachable

_ZN4base8AutoLockD2Ev.exit:                       ; preds = %_ZNSt5stackIN4base8CallbackIFvvELNS0_8internal8CopyModeE1ELNS3_10RepeatModeE1EEESt5dequeIS6_SaIS6_EEE4pushEOS6_.exit, %1
  ret void

18:                                               ; preds = %13, %10
  %19 = landingpad { ptr, i32 }
          cleanup
  invoke void @_ZN4base8internal8LockImpl6UnlockEv(ptr noundef nonnull align 8 dereferenceable(40) %2)
          to label %_ZN4base8AutoLockD2Ev.exit2 unwind label %20

20:                                               ; preds = %18
  %21 = landingpad { ptr, i32 }
          catch ptr null
  %22 = extractvalue { ptr, i32 } %21, 0
  tail call void @__clang_call_terminate(ptr %22) #14
  unreachable

_ZN4base8AutoLockD2Ev.exit2:                      ; preds = %18
  resume { ptr, i32 } %19
}